target datalayout = "e-m:e-p270:32:32-p271:32:32-p272:64:64-i64:64-i128:128-f80:128-n8:16:32:64-S128"
target triple = "x86_64-pc-linux-gnu"

%struct.ArrayBuildStateArr = type { ptr, ptr, ptr, i32, i32, i32, i32, i32, [6 x i32], [6 x i32], i32, i32, i8 }

@.str.2 = private unnamed_addr constant [13 x i8] c"arrayfuncs.c\00", align 1
@.str.36 = private unnamed_addr constant [34 x i8] c"data type %s is not an array type\00", align 1
@__func__.initArrayResultArr = private unnamed_addr constant [19 x i8] c"initArrayResultArr\00", align 1
@.str.37 = private unnamed_addr constant [20 x i8] c"accumArrayResultArr\00", align 1

; Function Attrs: nounwind uwtable
define dso_local ptr @initArrayResultArr(i32 noundef %0, i32 noundef %1, ptr noundef %2, i1 noundef zeroext %3) #0 {
  %5 = alloca i32, align 4
  %6 = alloca i32, align 4
  %7 = alloca ptr, align 8
  %8 = alloca i8, align 1
  %9 = alloca ptr, align 8
  %10 = alloca ptr, align 8
  %11 = alloca i32, align 4
  store i32 %0, ptr %5, align 4
  store i32 %1, ptr %6, align 4
  store ptr %2, ptr %7, align 8
  %12 = zext i1 %3 to i8
  store i8 %12, ptr %8, align 1
  call void @llvm.lifetime.start.p0(i64 8, ptr %9) #11
  call void @llvm.lifetime.start.p0(i64 8, ptr %10) #11
  %13 = load ptr, ptr %7, align 8
  store ptr %13, ptr %10, align 8
  %14 = load i32, ptr %6, align 4
  %15 = icmp ne i32 %14, 0
  br i1 %15, label %36, label %16

16:                                               ; preds = %4
  %17 = load i32, ptr %5, align 4
  %18 = call i32 @get_element_type(i32 noundef %17)
  store i32 %18, ptr %6, align 4
  %19 = load i32, ptr %6, align 4
  %20 = icmp ne i32 %19, 0
  br i1 %20, label %35, label %21

21:                                               ; preds = %16
  br label %22

22:                                               ; preds = %21
  br i1 true, label %23, label %25

23:                                               ; preds = %22
  %24 = call zeroext i1 @errstart_cold(i32 noundef 21, ptr noundef null) #13
  br i1 %24, label %27, label %32

25:                                               ; preds = %22
  %26 = call zeroext i1 @errstart(i32 noundef 21, ptr noundef null)
  br i1 %26, label %27, label %32

27:                                               ; preds = %25, %23
  %28 = call i32 @errcode(i32 noundef 67141764)
  %29 = load i32, ptr %5, align 4
  %30 = call ptr @format_type_be(i32 noundef %29)
  %31 = call i32 (ptr, ...) @errmsg(ptr noundef @.str.36, ptr noundef %30)
  call void @errfinish(ptr noundef @.str.2, i32 noundef 5519, ptr noundef @__func__.initArrayResultArr)
  br label %32

32:                                               ; preds = %27, %25, %23
  unreachable

33:                                               ; No predecessors!
  br label %34

34:                                               ; preds = %33
  br label %35

35:                                               ; preds = %34, %16
  br label %36

36:                                               ; preds = %35, %4
  %37 = load i8, ptr %8, align 1, !range !4, !noundef !5
  %38 = trunc i8 %37 to i1
  br i1 %38, label %39, label %45

39:                                               ; preds = %36
  br label %40

40:                                               ; preds = %39
  br label %41

41:                                               ; preds = %40
  br label %42

42:                                               ; preds = %41
  store i32 1, ptr %11, align 4
  %43 = load ptr, ptr %7, align 8
  %44 = call ptr @AllocSetContextCreateInternal(ptr noundef %43, ptr noundef @.str.37, i64 noundef 0, i64 noundef 8192, i64 noundef 8388608)
  store ptr %44, ptr %10, align 8
  br label %45

45:                                               ; preds = %42, %36
  %46 = load ptr, ptr %10, align 8
  %47 = call ptr @MemoryContextAllocZero(ptr noundef %46, i64 noundef 104)
  store ptr %47, ptr %9, align 8
  %48 = load ptr, ptr %10, align 8
  %49 = load ptr, ptr %9, align 8
  %50 = getelementptr inbounds nuw %struct.ArrayBuildStateArr, ptr %49, i32 0, i32 0
  store ptr %48, ptr %50, align 8
  %51 = load i8, ptr %8, align 1, !range !4, !noundef !5
  %52 = trunc i8 %51 to i1
  %53 = load ptr, ptr %9, align 8
  %54 = getelementptr inbounds nuw %struct.ArrayBuildStateArr, ptr %53, i32 0, i32 12
  %55 = zext i1 %52 to i8
  store i8 %55, ptr %54, align 4
  %56 = load i32, ptr %5, align 4
  %57 = load ptr, ptr %9, align 8
  %58 = getelementptr inbounds nuw %struct.ArrayBuildStateArr, ptr %57, i32 0, i32 10
  store i32 %56, ptr %58, align 4
  %59 = load i32, ptr %6, align 4
  %60 = load ptr, ptr %9, align 8
  %61 = getelementptr inbounds nuw %struct.ArrayBuildStateArr, ptr %60, i32 0, i32 11
  store i32 %59, ptr %61, align 8
  %62 = load ptr, ptr %9, align 8
  call void @llvm.lifetime.end.p0(i64 8, ptr %10) #11
  call void @llvm.lifetime.end.p0(i64 8, ptr %9) #11
  ret ptr %62
}