; Function Attrs: nounwind uwtable
define dso_local noundef ptr @initArrayResultArr(i32 noundef %0, i32 noundef %1, ptr noundef %2, i1 noundef zeroext %3) local_unnamed_addr #0 {
  %.not = icmp eq i32 %1, 0
  br i1 %.not, label %5, label %12

5:                                                ; preds = %4
  %6 = tail call i32 @get_element_type(i32 noundef %0) #18
  %.not19 = icmp eq i32 %6, 0
  br i1 %.not19, label %7, label %12

7:                                                ; preds = %5
  %8 = tail call zeroext i1 @errstart_cold(i32 noundef 21, ptr noundef null) #20
  tail call void @llvm.assume(i1 %8)
  %9 = tail call i32 @errcode(i32 noundef 67141764) #18
  %10 = tail call ptr @format_type_be(i32 noundef %0) #18
  %11 = tail call i32 (ptr, ...) @errmsg(ptr noundef nonnull @.str.36, ptr noundef %10) #18
  tail call void @errfinish(ptr noundef nonnull @.str.2, i32 noundef 5519, ptr noundef nonnull @__func__.initArrayResultArr) #18
  unreachable

12:                                               ; preds = %5, %4
  %.0 = phi i32 [ %1, %4 ], [ %6, %5 ]
  br i1 %3, label %13, label %15

13:                                               ; preds = %12
  %14 = tail call ptr @AllocSetContextCreateInternal(ptr noundef %2, ptr noundef nonnull @.str.37, i64 noundef 0, i64 noundef 8192, i64 noundef 8388608) #18
  br label %15

15:                                               ; preds = %13, %12
  %.016 = phi ptr [ %14, %13 ], [ %2, %12 ]
  %16 = zext i1 %3 to i8
  %17 = tail call ptr @MemoryContextAllocZero(ptr noundef %.016, i64 noundef 104) #18
  store ptr %.016, ptr %17, align 8
  %18 = getelementptr inbounds nuw i8, ptr %17, i64 100
  store i8 %16, ptr %18, align 4
  %19 = getelementptr inbounds nuw i8, ptr %17, i64 92
  store i32 %0, ptr %19, align 4
  %20 = getelementptr inbounds nuw i8, ptr %17, i64 96
  store i32 %.0, ptr %20, align 8
  ret ptr %17
}